target datalayout = "e-m:e-p270:32:32-p271:32:32-p272:64:64-i64:64-i128:128-f80:128-n8:16:32:64-S128"
target triple = "x86_64-pc-linux-gnu"

; Function Attrs: mustprogress uwtable
define internal void @_ZL13_appendUCharsPDsiPKci(ptr noundef %0, i32 noundef %1, ptr noundef %2, i32 noundef %3) #0 {
  %5 = alloca ptr, align 8
  %6 = alloca i32, align 4
  %7 = alloca ptr, align 8
  %8 = alloca i32, align 4
  store ptr %0, ptr %5, align 8, !tbaa !3
  store i32 %1, ptr %6, align 4, !tbaa !8
  store ptr %2, ptr %7, align 8, !tbaa !73
  store i32 %3, ptr %8, align 4, !tbaa !8
  %9 = load i32, ptr %6, align 4, !tbaa !8
  %10 = icmp slt i32 %9, 0
  br i1 %10, label %11, label %12

11:                                               ; preds = %4
  store i32 0, ptr %6, align 4, !tbaa !8
  br label %12

12:                                               ; preds = %11, %4
  %13 = load i32, ptr %8, align 4, !tbaa !8
  %14 = load i32, ptr %6, align 4, !tbaa !8
  %15 = icmp sgt i32 %13, %14
  br i1 %15, label %16, label %18

16:                                               ; preds = %12
  %17 = load i32, ptr %6, align 4, !tbaa !8
  store i32 %17, ptr %8, align 4, !tbaa !8
  br label %18

18:                                               ; preds = %16, %12
  %19 = load ptr, ptr %7, align 8, !tbaa !73
  %20 = load ptr, ptr %5, align 8, !tbaa !3
  %21 = load i32, ptr %8, align 4, !tbaa !8
  call void @u_charsToUChars_77(ptr noundef %19, ptr noundef %20, i32 noundef %21)
  ret void
}

; Function Attrs: mustprogress uwtable
define i32 @u_unescape_77(ptr noundef %0, ptr noundef %1, i32 noundef %2) #0 {
  %4 = alloca i32, align 4
  %5 = alloca ptr, align 8
  %6 = alloca ptr, align 8
  %7 = alloca i32, align 4
  %8 = alloca ptr, align 8
  %9 = alloca i32, align 4
  %10 = alloca i8, align 1
  %11 = alloca i32, align 4
  %12 = alloca i32, align 4
  %13 = alloca i32, align 4
  store ptr %0, ptr %5, align 8, !tbaa !73
  store ptr %1, ptr %6, align 8, !tbaa !3
  store i32 %2, ptr %7, align 4, !tbaa !8
  call void @llvm.lifetime.start.p0(i64 8, ptr %8) #7
  %14 = load ptr, ptr %5, align 8, !tbaa !73
  store ptr %14, ptr %8, align 8, !tbaa !73
  call void @llvm.lifetime.start.p0(i64 4, ptr %9) #7
  store i32 0, ptr %9, align 4, !tbaa !8
  call void @llvm.lifetime.start.p0(i64 1, ptr %10) #7
  br label %15

15:                                               ; preds = %129, %3
  %16 = load ptr, ptr %5, align 8, !tbaa !73
  %17 = load i8, ptr %16, align 1, !tbaa !30
  store i8 %17, ptr %10, align 1, !tbaa !30
  %18 = sext i8 %17 to i32
  %19 = icmp ne i32 %18, 0
  br i1 %19, label %20, label %130

20:                                               ; preds = %15
  %21 = load i8, ptr %10, align 1, !tbaa !30
  %22 = sext i8 %21 to i32
  %23 = icmp eq i32 %22, 92
  br i1 %23, label %24, label %126

24:                                               ; preds = %20
  call void @llvm.lifetime.start.p0(i64 4, ptr %11) #7
  store i32 0, ptr %11, align 4, !tbaa !8
  call void @llvm.lifetime.start.p0(i64 4, ptr %12) #7
  %25 = load ptr, ptr %5, align 8, !tbaa !73
  %26 = load ptr, ptr %8, align 8, !tbaa !73
  %27 = icmp ne ptr %25, %26
  br i1 %27, label %28, label %55

28:                                               ; preds = %24
  %29 = load ptr, ptr %6, align 8, !tbaa !3
  %30 = icmp ne ptr %29, null
  br i1 %30, label %31, label %46

31:                                               ; preds = %28
  %32 = load ptr, ptr %6, align 8, !tbaa !3
  %33 = load i32, ptr %9, align 4, !tbaa !8
  %34 = sext i32 %33 to i64
  %35 = getelementptr inbounds i16, ptr %32, i64 %34
  %36 = load i32, ptr %7, align 4, !tbaa !8
  %37 = load i32, ptr %9, align 4, !tbaa !8
  %38 = sub nsw i32 %36, %37
  %39 = load ptr, ptr %8, align 8, !tbaa !73
  %40 = load ptr, ptr %5, align 8, !tbaa !73
  %41 = load ptr, ptr %8, align 8, !tbaa !73
  %42 = ptrtoint ptr %40 to i64
  %43 = ptrtoint ptr %41 to i64
  %44 = sub i64 %42, %43
  %45 = trunc i64 %44 to i32
  call void @_ZL13_appendUCharsPDsiPKci(ptr noundef %35, i32 noundef %38, ptr noundef %39, i32 noundef %45)
  br label %46

46:                                               ; preds = %31, %28
  %47 = load ptr, ptr %5, align 8, !tbaa !73
  %48 = load ptr, ptr %8, align 8, !tbaa !73
  %49 = ptrtoint ptr %47 to i64
  %50 = ptrtoint ptr %48 to i64
  %51 = sub i64 %49, %50
  %52 = trunc i64 %51 to i32
  %53 = load i32, ptr %9, align 4, !tbaa !8
  %54 = add nsw i32 %53, %52
  store i32 %54, ptr %9, align 4, !tbaa !8
  br label %55

55:                                               ; preds = %46, %24
  %56 = load ptr, ptr %5, align 8, !tbaa !73
  %57 = getelementptr inbounds nuw i8, ptr %56, i32 1
  store ptr %57, ptr %5, align 8, !tbaa !73
  %58 = load ptr, ptr %5, align 8, !tbaa !73
  %59 = call i64 @strlen(ptr noundef %58) #8
  %60 = trunc i64 %59 to i32
  %61 = load ptr, ptr %5, align 8, !tbaa !73
  %62 = call i32 @u_unescapeAt_77(ptr noundef @_ZL15_charPtr_charAtiPv, ptr noundef %11, i32 noundef %60, ptr noundef %61)
  store i32 %62, ptr %12, align 4, !tbaa !8
  %63 = load i32, ptr %11, align 4, !tbaa !8
  %64 = icmp eq i32 %63, 0
  br i1 %64, label %65, label %66

65:                                               ; preds = %55
  store i32 4, ptr %13, align 4
  br label %123

66:                                               ; preds = %55
  %67 = load i32, ptr %11, align 4, !tbaa !8
  %68 = load ptr, ptr %5, align 8, !tbaa !73
  %69 = sext i32 %67 to i64
  %70 = getelementptr inbounds i8, ptr %68, i64 %69
  store ptr %70, ptr %5, align 8, !tbaa !73
  %71 = load ptr, ptr %6, align 8, !tbaa !3
  %72 = icmp ne ptr %71, null
  br i1 %72, label %73, label %115

73:                                               ; preds = %66
  %74 = load i32, ptr %12, align 4, !tbaa !8
  %75 = icmp ule i32 %74, 65535
  %76 = select i1 %75, i32 1, i32 2
  %77 = load i32, ptr %7, align 4, !tbaa !8
  %78 = load i32, ptr %9, align 4, !tbaa !8
  %79 = sub nsw i32 %77, %78
  %80 = icmp sle i32 %76, %79
  br i1 %80, label %81, label %115

81:                                               ; preds = %73
  br label %82

82:                                               ; preds = %81
  %83 = load i32, ptr %12, align 4, !tbaa !8
  %84 = icmp ule i32 %83, 65535
  br i1 %84, label %85, label %93

85:                                               ; preds = %82
  %86 = load i32, ptr %12, align 4, !tbaa !8
  %87 = trunc i32 %86 to i16
  %88 = load ptr, ptr %6, align 8, !tbaa !3
  %89 = load i32, ptr %9, align 4, !tbaa !8
  %90 = add nsw i32 %89, 1
  store i32 %90, ptr %9, align 4, !tbaa !8
  %91 = sext i32 %89 to i64
  %92 = getelementptr inbounds i16, ptr %88, i64 %91
  store i16 %87, ptr %92, align 2, !tbaa !10
  br label %112

93:                                               ; preds = %82
  %94 = load i32, ptr %12, align 4, !tbaa !8
  %95 = ashr i32 %94, 10
  %96 = add nsw i32 %95, 55232
  %97 = trunc i32 %96 to i16
  %98 = load ptr, ptr %6, align 8, !tbaa !3
  %99 = load i32, ptr %9, align 4, !tbaa !8
  %100 = add nsw i32 %99, 1
  store i32 %100, ptr %9, align 4, !tbaa !8
  %101 = sext i32 %99 to i64
  %102 = getelementptr inbounds i16, ptr %98, i64 %101
  store i16 %97, ptr %102, align 2, !tbaa !10
  %103 = load i32, ptr %12, align 4, !tbaa !8
  %104 = and i32 %103, 1023
  %105 = or i32 %104, 56320
  %106 = trunc i32 %105 to i16
  %107 = load ptr, ptr %6, align 8, !tbaa !3
  %108 = load i32, ptr %9, align 4, !tbaa !8
  %109 = add nsw i32 %108, 1
  store i32 %109, ptr %9, align 4, !tbaa !8
  %110 = sext i32 %108 to i64
  %111 = getelementptr inbounds i16, ptr %107, i64 %110
  store i16 %106, ptr %111, align 2, !tbaa !10
  br label %112

112:                                              ; preds = %93, %85
  br label %113

113:                                              ; preds = %112
  br label %114

114:                                              ; preds = %113
  br label %121

115:                                              ; preds = %73, %66
  %116 = load i32, ptr %12, align 4, !tbaa !8
  %117 = icmp ule i32 %116, 65535
  %118 = select i1 %117, i32 1, i32 2
  %119 = load i32, ptr %9, align 4, !tbaa !8
  %120 = add nsw i32 %119, %118
  store i32 %120, ptr %9, align 4, !tbaa !8
  br label %121

121:                                              ; preds = %115, %114
  %122 = load ptr, ptr %5, align 8, !tbaa !73
  store ptr %122, ptr %8, align 8, !tbaa !73
  store i32 0, ptr %13, align 4
  br label %123

123:                                              ; preds = %65, %121
  call void @llvm.lifetime.end.p0(i64 4, ptr %12) #7
  call void @llvm.lifetime.end.p0(i64 4, ptr %11) #7
  %124 = load i32, ptr %13, align 4
  switch i32 %124, label %184 [
    i32 0, label %125
    i32 4, label %175
  ]

125:                                              ; preds = %123
  br label %129

126:                                              ; preds = %20
  %127 = load ptr, ptr %5, align 8, !tbaa !73
  %128 = getelementptr inbounds nuw i8, ptr %127, i32 1
  store ptr %128, ptr %5, align 8, !tbaa !73
  br label %129

129:                                              ; preds = %126, %125
  br label %15, !llvm.loop !75

130:                                              ; preds = %15
  %131 = load ptr, ptr %5, align 8, !tbaa !73
  %132 = load ptr, ptr %8, align 8, !tbaa !73
  %133 = icmp ne ptr %131, %132
  br i1 %133, label %134, label %161

134:                                              ; preds = %130
  %135 = load ptr, ptr %6, align 8, !tbaa !3
  %136 = icmp ne ptr %135, null
  br i1 %136, label %137, label %152

137:                                              ; preds = %134
  %138 = load ptr, ptr %6, align 8, !tbaa !3
  %139 = load i32, ptr %9, align 4, !tbaa !8
  %140 = sext i32 %139 to i64
  %141 = getelementptr inbounds i16, ptr %138, i64 %140
  %142 = load i32, ptr %7, align 4, !tbaa !8
  %143 = load i32, ptr %9, align 4, !tbaa !8
  %144 = sub nsw i32 %142, %143
  %145 = load ptr, ptr %8, align 8, !tbaa !73
  %146 = load ptr, ptr %5, align 8, !tbaa !73
  %147 = load ptr, ptr %8, align 8, !tbaa !73
  %148 = ptrtoint ptr %146 to i64
  %149 = ptrtoint ptr %147 to i64
  %150 = sub i64 %148, %149
  %151 = trunc i64 %150 to i32
  call void @_ZL13_appendUCharsPDsiPKci(ptr noundef %141, i32 noundef %144, ptr noundef %145, i32 noundef %151)
  br label %152

152:                                              ; preds = %137, %134
  %153 = load ptr, ptr %5, align 8, !tbaa !73
  %154 = load ptr, ptr %8, align 8, !tbaa !73
  %155 = ptrtoint ptr %153 to i64
  %156 = ptrtoint ptr %154 to i64
  %157 = sub i64 %155, %156
  %158 = trunc i64 %157 to i32
  %159 = load i32, ptr %9, align 4, !tbaa !8
  %160 = add nsw i32 %159, %158
  store i32 %160, ptr %9, align 4, !tbaa !8
  br label %161

161:                                              ; preds = %152, %130
  %162 = load ptr, ptr %6, align 8, !tbaa !3
  %163 = icmp ne ptr %162, null
  br i1 %163, label %164, label %173

164:                                              ; preds = %161
  %165 = load i32, ptr %9, align 4, !tbaa !8
  %166 = load i32, ptr %7, align 4, !tbaa !8
  %167 = icmp slt i32 %165, %166
  br i1 %167, label %168, label %173

168:                                              ; preds = %164
  %169 = load ptr, ptr %6, align 8, !tbaa !3
  %170 = load i32, ptr %9, align 4, !tbaa !8
  %171 = sext i32 %170 to i64
  %172 = getelementptr inbounds i16, ptr %169, i64 %171
  store i16 0, ptr %172, align 2, !tbaa !10
  br label %173

173:                                              ; preds = %168, %164, %161
  %174 = load i32, ptr %9, align 4, !tbaa !8
  store i32 %174, ptr %4, align 4
  store i32 1, ptr %13, align 4
  br label %184

175:                                              ; preds = %123
  %176 = load ptr, ptr %6, align 8, !tbaa !3
  %177 = icmp ne ptr %176, null
  br i1 %177, label %178, label %183

178:                                              ; preds = %175
  %179 = load i32, ptr %7, align 4, !tbaa !8
  %180 = icmp sgt i32 %179, 0
  br i1 %180, label %181, label %183

181:                                              ; preds = %178
  %182 = load ptr, ptr %6, align 8, !tbaa !3
  store i16 0, ptr %182, align 2, !tbaa !10
  br label %183

183:                                              ; preds = %181, %178, %175
  store i32 0, ptr %4, align 4
  store i32 1, ptr %13, align 4
  br label %184

184:                                              ; preds = %183, %173, %123
  call void @llvm.lifetime.end.p0(i64 1, ptr %10) #7
  call void @llvm.lifetime.end.p0(i64 4, ptr %9) #7
  call void @llvm.lifetime.end.p0(i64 8, ptr %8) #7
  %185 = load i32, ptr %4, align 4
  ret i32 %185
}