; Function Attrs: mustprogress uwtable
define i32 @u_unescape_77(ptr noundef %0, ptr noundef %1, i32 noundef %2) local_unnamed_addr #6 {
  %4 = alloca i32, align 4
  %.not84 = icmp eq ptr %1, null
  br i1 %.not84, label %.split.us.split.us.outer, label %.split.split.outer

.split.us.split.us.outer:                         ; preds = %3, %.thread.us.us
  %.064.us.us.ph = phi i32 [ %.266.ph.us.us, %.thread.us.us ], [ 0, %3 ]
  %.063.us.us.ph = phi ptr [ %19, %.thread.us.us ], [ %0, %3 ]
  br label %.split.us.split.us

.split.us.split.us:                               ; preds = %.split.us.split.us.outer, %22
  %.063.us.us = phi ptr [ %23, %22 ], [ %.063.us.us.ph, %.split.us.split.us.outer ]
  %5 = load i8, ptr %.063.us.us, align 1, !tbaa !62
  switch i8 %5, label %22 [
    i8 0, label %.split99.us
    i8 92, label %6
  ]

6:                                                ; preds = %.split.us.split.us
  call void @llvm.lifetime.start.p0(i64 4, ptr nonnull %4) #14
  store i32 0, ptr %4, align 4, !tbaa !59
  %7 = getelementptr inbounds nuw i8, ptr %.063.us.us, i64 1
  %8 = tail call i64 @strlen(ptr noundef nonnull dereferenceable(1) %7) #15
  %9 = trunc i64 %8 to i32
  %10 = call i32 @u_unescapeAt_77(ptr noundef nonnull @_ZL15_charPtr_charAtiPv, ptr noundef nonnull %4, i32 noundef %9, ptr noundef nonnull %7)
  %11 = load i32, ptr %4, align 4, !tbaa !59
  %12 = icmp eq i32 %11, 0
  br i1 %12, label %.split103.us, label %.thread.us.us

.thread.us.us:                                    ; preds = %6
  %.not82.us.us = icmp eq ptr %.063.us.us, %.063.us.us.ph
  %13 = ptrtoint ptr %.063.us.us to i64
  %14 = ptrtoint ptr %.063.us.us.ph to i64
  %15 = sub i64 %13, %14
  %16 = trunc i64 %15 to i32
  %17 = select i1 %.not82.us.us, i32 0, i32 %16
  %.165.us.us = add nsw i32 %.064.us.us.ph, %17
  %18 = sext i32 %11 to i64
  %19 = getelementptr inbounds i8, ptr %7, i64 %18
  %20 = icmp ult i32 %10, 65536
  %21 = select i1 %20, i32 1, i32 2
  %.266.ph.us.us = add nsw i32 %21, %.165.us.us
  call void @llvm.lifetime.end.p0(i64 4, ptr nonnull %4) #14
  br label %.split.us.split.us.outer, !llvm.loop !63

22:                                               ; preds = %.split.us.split.us
  %23 = getelementptr inbounds nuw i8, ptr %.063.us.us, i64 1
  br label %.split.us.split.us, !llvm.loop !63

.split.split:                                     ; preds = %.split.split.outer, %63
  %.063 = phi ptr [ %64, %63 ], [ %.063.ph, %.split.split.outer ]
  %24 = load i8, ptr %.063, align 1, !tbaa !62
  switch i8 %24, label %63 [
    i8 0, label %.split99.us
    i8 92, label %25
  ]

25:                                               ; preds = %.split.split
  call void @llvm.lifetime.start.p0(i64 4, ptr nonnull %4) #14
  store i32 0, ptr %4, align 4, !tbaa !59
  %.not82 = icmp eq ptr %.063, %.063.ph
  br i1 %.not82, label %35, label %26

26:                                               ; preds = %25
  %27 = sext i32 %.064.ph to i64
  %28 = getelementptr inbounds i16, ptr %1, i64 %27
  %29 = sub nsw i32 %2, %.064.ph
  %30 = ptrtoint ptr %.063 to i64
  %31 = ptrtoint ptr %.063.ph to i64
  %32 = sub i64 %30, %31
  %33 = trunc i64 %32 to i32
  %spec.store.select.i = tail call i32 @llvm.smax.i32(i32 %29, i32 0)
  %spec.select.i = tail call i32 @llvm.smin.i32(i32 %33, i32 %spec.store.select.i)
  tail call void @u_charsToUChars_77(ptr noundef %.063.ph, ptr noundef nonnull %28, i32 noundef %spec.select.i)
  %34 = add nsw i32 %.064.ph, %33
  br label %35

35:                                               ; preds = %26, %25
  %.165 = phi i32 [ %34, %26 ], [ %.064.ph, %25 ]
  %36 = getelementptr inbounds nuw i8, ptr %.063, i64 1
  %37 = tail call i64 @strlen(ptr noundef nonnull dereferenceable(1) %36) #15
  %38 = trunc i64 %37 to i32
  %39 = call i32 @u_unescapeAt_77(ptr noundef nonnull @_ZL15_charPtr_charAtiPv, ptr noundef nonnull %4, i32 noundef %38, ptr noundef nonnull %36)
  %40 = load i32, ptr %4, align 4, !tbaa !59
  %41 = icmp eq i32 %40, 0
  br i1 %41, label %.split103.us, label %42

42:                                               ; preds = %35
  %43 = sext i32 %40 to i64
  %44 = getelementptr inbounds i8, ptr %36, i64 %43
  %45 = icmp ult i32 %39, 65536
  %46 = select i1 %45, i32 1, i32 2
  %47 = sub nsw i32 %2, %.165
  %.not85 = icmp sgt i32 %46, %47
  br i1 %.not85, label %.thread, label %48

48:                                               ; preds = %42
  br i1 %45, label %49, label %53

49:                                               ; preds = %48
  %50 = trunc nuw i32 %39 to i16
  %51 = sext i32 %.165 to i64
  %52 = getelementptr inbounds i16, ptr %1, i64 %51
  store i16 %50, ptr %52, align 2, !tbaa !3
  br label %.thread

53:                                               ; preds = %48
  %54 = lshr i32 %39, 10
  %55 = trunc i32 %54 to i16
  %56 = add i16 %55, -10304
  %57 = sext i32 %.165 to i64
  %58 = getelementptr inbounds i16, ptr %1, i64 %57
  store i16 %56, ptr %58, align 2, !tbaa !3
  %59 = trunc i32 %39 to i16
  %60 = and i16 %59, 1023
  %61 = or disjoint i16 %60, -9216
  %62 = getelementptr i8, ptr %58, i64 2
  store i16 %61, ptr %62, align 2, !tbaa !3
  br label %.thread

.thread:                                          ; preds = %42, %49, %53
  %.pn = phi i32 [ 2, %53 ], [ 1, %49 ], [ %46, %42 ]
  %.266.ph = add nsw i32 %.pn, %.165
  call void @llvm.lifetime.end.p0(i64 4, ptr nonnull %4) #14
  br label %.split.split.outer, !llvm.loop !63

.split.split.outer:                               ; preds = %3, %.thread
  %.064.ph = phi i32 [ %.266.ph, %.thread ], [ 0, %3 ]
  %.063.ph = phi ptr [ %44, %.thread ], [ %0, %3 ]
  br label %.split.split

63:                                               ; preds = %.split.split
  %64 = getelementptr inbounds nuw i8, ptr %.063, i64 1
  br label %.split.split, !llvm.loop !63

.split99.us:                                      ; preds = %.split.split, %.split.us.split.us
  %.us-phi = phi ptr [ %.063.us.us.ph, %.split.us.split.us ], [ %.063.ph, %.split.split ]
  %.us-phi100 = phi i32 [ %.064.us.us.ph, %.split.us.split.us ], [ %.064.ph, %.split.split ]
  %.us-phi101 = phi ptr [ %.063.us.us, %.split.us.split.us ], [ %.063, %.split.split ]
  %.not79 = icmp eq ptr %.us-phi101, %.us-phi
  br i1 %.not79, label %76, label %65

65:                                               ; preds = %.split99.us
  br i1 %.not84, label %._crit_edge, label %66

._crit_edge:                                      ; preds = %65
  %.pre = ptrtoint ptr %.us-phi101 to i64
  %.pre132 = ptrtoint ptr %.us-phi to i64
  %.pre134 = sub i64 %.pre, %.pre132
  %.pre136 = trunc i64 %.pre134 to i32
  br label %74

66:                                               ; preds = %65
  %67 = sext i32 %.us-phi100 to i64
  %68 = getelementptr inbounds i16, ptr %1, i64 %67
  %69 = sub nsw i32 %2, %.us-phi100
  %70 = ptrtoint ptr %.us-phi101 to i64
  %71 = ptrtoint ptr %.us-phi to i64
  %72 = sub i64 %70, %71
  %73 = trunc i64 %72 to i32
  %spec.store.select.i88 = tail call i32 @llvm.smax.i32(i32 %69, i32 0)
  %spec.select.i89 = tail call i32 @llvm.smin.i32(i32 %73, i32 %spec.store.select.i88)
  tail call void @u_charsToUChars_77(ptr noundef %.us-phi, ptr noundef nonnull %68, i32 noundef %spec.select.i89)
  br label %74

74:                                               ; preds = %._crit_edge, %66
  %.pre-phi137 = phi i32 [ %.pre136, %._crit_edge ], [ %73, %66 ]
  %75 = add nsw i32 %.us-phi100, %.pre-phi137
  br label %76

76:                                               ; preds = %74, %.split99.us
  %.5 = phi i32 [ %75, %74 ], [ %.us-phi100, %.split99.us ]
  %.not81 = icmp ne ptr %1, null
  %77 = icmp slt i32 %.5, %2
  %or.cond87 = select i1 %.not81, i1 %77, i1 false
  br i1 %or.cond87, label %78, label %84

78:                                               ; preds = %76
  %79 = sext i32 %.5 to i64
  %80 = getelementptr inbounds i16, ptr %1, i64 %79
  store i16 0, ptr %80, align 2, !tbaa !3
  br label %84

.split103.us:                                     ; preds = %35, %6
  call void @llvm.lifetime.end.p0(i64 4, ptr nonnull %4) #14
  %81 = icmp ne ptr %1, null
  %82 = icmp sgt i32 %2, 0
  %or.cond = and i1 %81, %82
  br i1 %or.cond, label %83, label %84

83:                                               ; preds = %.split103.us
  store i16 0, ptr %1, align 2, !tbaa !3
  br label %84

84:                                               ; preds = %.split103.us, %83, %76, %78
  %.062 = phi i32 [ %.5, %78 ], [ %.5, %76 ], [ 0, %83 ], [ 0, %.split103.us ]
  ret i32 %.062
}